; Function Attrs: mustprogress nofree norecurse nosync nounwind willreturn memory(argmem: read) uwtable
define dso_local { double, double } @_ZNK7msdfgen13LinearSegment5pointEd(ptr nocapture noundef nonnull readonly align 8 dereferenceable(48) %this, double noundef %param) unnamed_addr #7 align 2 {
entry:
  %p = getelementptr inbounds i8, ptr %this, i64 16
  %arrayidx4 = getelementptr inbounds i8, ptr %this, i64 32
  %sub.i = fsub double 1.000000e+00, %param
  %0 = load <2 x double>, ptr %p, align 8
  %1 = load <2 x double>, ptr %arrayidx4, align 8
  %2 = insertelement <2 x double> poison, double %sub.i, i64 0
  %3 = shufflevector <2 x double> %2, <2 x double> poison, <2 x i32> zeroinitializer
  %4 = fmul <2 x double> %3, %0
  %5 = insertelement <2 x double> poison, double %param, i64 0
  %6 = shufflevector <2 x double> %5, <2 x double> poison, <2 x i32> zeroinitializer
  %7 = fmul <2 x double> %1, %6
  %8 = fadd <2 x double> %4, %7
  %9 = extractelement <2 x double> %8, i64 0
  %.fca.0.insert.i6.i = insertvalue { double, double } poison, double %9, 0
  %10 = extractelement <2 x double> %8, i64 1
  %.fca.1.insert.i7.i = insertvalue { double, double } %.fca.0.insert.i6.i, double %10, 1
  ret { double, double } %.fca.1.insert.i7.i
}